target datalayout = "e-m:e-p270:32:32-p271:32:32-p272:64:64-i64:64-i128:128-f80:128-n8:16:32:64-S128"
target triple = "x86_64-pc-linux-gnu"

%"class.Imf_3_4::ImageChannel" = type { ptr, ptr, i32, i32, i8, i32, i32, i64 }
%"struct.Imf_3_4::Channel" = type <{ i32, i32, i32, i8, [3 x i8] }>

; Function Attrs: mustprogress nounwind uwtable
define linkonce_odr hidden noundef zeroext i1 @_ZNK7Imf_3_412ImageChannel7pLinearEv(ptr noundef nonnull align 8 dereferenceable(48) %0) #4 comdat align 2 {
  %2 = alloca ptr, align 8
  store ptr %0, ptr %2, align 8, !tbaa !3
  %3 = load ptr, ptr %2, align 8
  %4 = getelementptr inbounds nuw %"class.Imf_3_4::ImageChannel", ptr %3, i32 0, i32 4
  %5 = load i8, ptr %4, align 8, !tbaa !22, !range !20, !noundef !21
  %6 = trunc i8 %5 to i1
  ret i1 %6
}

; Function Attrs: mustprogress nounwind uwtable
define linkonce_odr hidden noundef i32 @_ZNK7Imf_3_412ImageChannel9ySamplingEv(ptr noundef nonnull align 8 dereferenceable(48) %0) #4 comdat align 2 {
  %2 = alloca ptr, align 8
  store ptr %0, ptr %2, align 8, !tbaa !3
  %3 = load ptr, ptr %2, align 8
  %4 = getelementptr inbounds nuw %"class.Imf_3_4::ImageChannel", ptr %3, i32 0, i32 3
  %5 = load i32, ptr %4, align 4, !tbaa !19
  ret i32 %5
}

; Function Attrs: mustprogress nounwind uwtable
define linkonce_odr hidden noundef i32 @_ZNK7Imf_3_412ImageChannel9xSamplingEv(ptr noundef nonnull align 8 dereferenceable(48) %0) #4 comdat align 2 {
  %2 = alloca ptr, align 8
  store ptr %0, ptr %2, align 8, !tbaa !3
  %3 = load ptr, ptr %2, align 8
  %4 = getelementptr inbounds nuw %"class.Imf_3_4::ImageChannel", ptr %3, i32 0, i32 2
  %5 = load i32, ptr %4, align 8, !tbaa !16
  ret i32 %5
}

; Function Attrs: mustprogress uwtable
define { i64, i64 } @_ZNK7Imf_3_412ImageChannel7channelEv(ptr noundef nonnull align 8 dereferenceable(48) %0) #6 align 2 {
  %2 = alloca %"struct.Imf_3_4::Channel", align 4
  %3 = alloca ptr, align 8
  store ptr %0, ptr %3, align 8, !tbaa !3
  %4 = load ptr, ptr %3, align 8
  %5 = load ptr, ptr %4, align 8, !tbaa !14
  %6 = getelementptr inbounds ptr, ptr %5, i64 0
  %7 = load ptr, ptr %6, align 8
  %8 = call noundef i32 %7(ptr noundef nonnull align 8 dereferenceable(48) %4)
  %9 = call noundef i32 @_ZNK7Imf_3_412ImageChannel9xSamplingEv(ptr noundef nonnull align 8 dereferenceable(48) %4)
  %10 = call noundef i32 @_ZNK7Imf_3_412ImageChannel9ySamplingEv(ptr noundef nonnull align 8 dereferenceable(48) %4)
  %11 = call noundef zeroext i1 @_ZNK7Imf_3_412ImageChannel7pLinearEv(ptr noundef nonnull align 8 dereferenceable(48) %4)
  call void @_ZN7Imf_3_47ChannelC1ENS_9PixelTypeEiib(ptr noundef nonnull align 4 dereferenceable(13) %2, i32 noundef %8, i32 noundef %9, i32 noundef %10, i1 noundef zeroext %11)
  %12 = load { i64, i64 }, ptr %2, align 4
  ret { i64, i64 } %12
}