; Function Attrs: mustprogress uwtable
define { i64, i64 } @_ZNK7Imf_3_412ImageChannel7channelEv(ptr noundef nonnull align 8 dereferenceable(48) %0) local_unnamed_addr #7 align 2 {
  %2 = alloca %"struct.Imf_3_4::Channel", align 8
  %3 = load ptr, ptr %0, align 8, !tbaa !3
  %4 = load ptr, ptr %3, align 8
  %5 = tail call noundef i32 %4(ptr noundef nonnull align 8 dereferenceable(48) %0)
  %6 = getelementptr inbounds nuw i8, ptr %0, i64 16
  %7 = load i32, ptr %6, align 8, !tbaa !10
  %8 = getelementptr inbounds nuw i8, ptr %0, i64 20
  %9 = load i32, ptr %8, align 4, !tbaa !15
  %10 = getelementptr inbounds nuw i8, ptr %0, i64 24
  %11 = load i8, ptr %10, align 8, !tbaa !16, !range !20, !noundef !21
  %12 = trunc nuw i8 %11 to i1
  call void @_ZN7Imf_3_47ChannelC1ENS_9PixelTypeEiib(ptr noundef nonnull align 4 dereferenceable(13) %2, i32 noundef %5, i32 noundef %7, i32 noundef %9, i1 noundef zeroext %12)
  %.fca.0.load = load i64, ptr %2, align 8
  %.fca.0.insert = insertvalue { i64, i64 } poison, i64 %.fca.0.load, 0
  %.fca.1.gep = getelementptr inbounds nuw i8, ptr %2, i64 8
  %.fca.1.load = load i64, ptr %.fca.1.gep, align 8
  %.fca.1.insert = insertvalue { i64, i64 } %.fca.0.insert, i64 %.fca.1.load, 1
  ret { i64, i64 } %.fca.1.insert
}